target datalayout = "e-m:e-p270:32:32-p271:32:32-p272:64:64-i64:64-i128:128-f80:128-n8:16:32:64-S128"
target triple = "x86_64-pc-linux-gnu"

%struct.Pxy_t = type { double, double }
%struct.pointnlink_t = type { ptr, ptr }

; Function Attrs: nounwind uwtable
define internal { double, double } @point_indexer(ptr noundef %0, i64 noundef %1) #0 {
  %3 = alloca %struct.Pxy_t, align 8
  %4 = alloca ptr, align 8
  %5 = alloca i64, align 8
  %6 = alloca ptr, align 8
  store ptr %0, ptr %4, align 8, !tbaa !59
  store i64 %1, ptr %5, align 8, !tbaa !19
  call void @llvm.lifetime.start.p0(i64 8, ptr %6) #9
  %7 = load ptr, ptr %4, align 8, !tbaa !59
  store ptr %7, ptr %6, align 8, !tbaa !17
  %8 = load ptr, ptr %6, align 8, !tbaa !17
  %9 = load i64, ptr %5, align 8, !tbaa !19
  %10 = getelementptr inbounds nuw ptr, ptr %8, i64 %9
  %11 = load ptr, ptr %10, align 8, !tbaa !13
  %12 = getelementptr inbounds nuw %struct.pointnlink_t, ptr %11, i32 0, i32 0
  %13 = load ptr, ptr %12, align 8, !tbaa !34
  call void @llvm.memcpy.p0.p0.i64(ptr align 8 %3, ptr align 8 %13, i64 16, i1 false), !tbaa.struct !32
  call void @llvm.lifetime.end.p0(i64 8, ptr %6) #9
  %14 = load { double, double }, ptr %3, align 8
  ret { double, double } %14
}