; Function Attrs: mustprogress nofree norecurse nosync nounwind willreturn memory(read, inaccessiblemem: none) uwtable
define internal { double, double } @point_indexer(ptr noundef readonly captures(none) %0, i64 noundef %1) #9 {
  %3 = getelementptr inbounds nuw ptr, ptr %0, i64 %1
  %4 = load ptr, ptr %3, align 8, !tbaa !30
  %5 = load ptr, ptr %4, align 8, !tbaa !26
  %.sroa.0.0.copyload = load double, ptr %5, align 8, !tbaa !24
  %.sroa.2.0..sroa_idx = getelementptr inbounds nuw i8, ptr %5, i64 8
  %.sroa.2.0.copyload = load double, ptr %.sroa.2.0..sroa_idx, align 8, !tbaa !24
  %.fca.0.insert = insertvalue { double, double } poison, double %.sroa.0.0.copyload, 0
  %.fca.1.insert = insertvalue { double, double } %.fca.0.insert, double %.sroa.2.0.copyload, 1
  ret { double, double } %.fca.1.insert
}